target datalayout = "e-m:e-p270:32:32-p271:32:32-p272:64:64-i64:64-i128:128-f80:128-n8:16:32:64-S128"
target triple = "x86_64-pc-linux-gnu"

%struct.anon = type { i16, i16, i32 }
%struct.FunctionCallInfoBaseData = type { ptr, ptr, ptr, i32, i8, i16, [0 x %struct.NullableDatum] }
%struct.NullableDatum = type { i64, i8 }

; Function Attrs: inlinehint nounwind uwtable
define internal ptr @DatumGetPointer(i64 noundef %0) #2 {
  %2 = alloca i64, align 8
  store i64 %0, ptr %2, align 8
  %3 = load i64, ptr %2, align 8
  %4 = inttoptr i64 %3 to ptr
  ret ptr %4
}

; Function Attrs: inlinehint nounwind uwtable
define internal i64 @Int32GetDatum(i32 noundef %0) #2 {
  %2 = alloca i32, align 4
  store i32 %0, ptr %2, align 4
  %3 = load i32, ptr %2, align 4
  %4 = sext i32 %3 to i64
  ret i64 %4
}

; Function Attrs: nounwind uwtable
define internal i32 @euc_jp2sjis(ptr noundef %0, ptr noundef %1, i32 noundef %2, i1 noundef zeroext %3) #0 {
  %5 = alloca ptr, align 8
  %6 = alloca ptr, align 8
  %7 = alloca i32, align 4
  %8 = alloca i8, align 1
  %9 = alloca ptr, align 8
  %10 = alloca i32, align 4
  %11 = alloca i32, align 4
  %12 = alloca i32, align 4
  %13 = alloca i32, align 4
  %14 = alloca i32, align 4
  %15 = alloca i32, align 4
  store ptr %0, ptr %5, align 8
  store ptr %1, ptr %6, align 8
  store i32 %2, ptr %7, align 4
  %16 = zext i1 %3 to i8
  store i8 %16, ptr %8, align 1
  call void @llvm.lifetime.start.p0(i64 8, ptr %9) #5
  %17 = load ptr, ptr %5, align 8
  store ptr %17, ptr %9, align 8
  call void @llvm.lifetime.start.p0(i64 4, ptr %10) #5
  call void @llvm.lifetime.start.p0(i64 4, ptr %11) #5
  call void @llvm.lifetime.start.p0(i64 4, ptr %12) #5
  call void @llvm.lifetime.start.p0(i64 4, ptr %13) #5
  br label %18

18:                                               ; preds = %214, %40, %4
  %19 = load i32, ptr %7, align 4
  %20 = icmp sgt i32 %19, 0
  br i1 %20, label %21, label %222

21:                                               ; preds = %18
  %22 = load ptr, ptr %5, align 8
  %23 = load i8, ptr %22, align 1
  %24 = zext i8 %23 to i32
  store i32 %24, ptr %10, align 4
  %25 = load i32, ptr %10, align 4
  %26 = trunc i32 %25 to i8
  %27 = zext i8 %26 to i32
  %28 = and i32 %27, 128
  %29 = icmp ne i32 %28, 0
  br i1 %29, label %49, label %30

30:                                               ; preds = %21
  %31 = load i32, ptr %10, align 4
  %32 = icmp eq i32 %31, 0
  br i1 %32, label %33, label %40

33:                                               ; preds = %30
  %34 = load i8, ptr %8, align 1, !range !3, !noundef !4
  %35 = trunc i8 %34 to i1
  br i1 %35, label %36, label %37

36:                                               ; preds = %33
  br label %222

37:                                               ; preds = %33
  %38 = load ptr, ptr %5, align 8
  %39 = load i32, ptr %7, align 4
  call void @report_invalid_encoding(i32 noundef 1, ptr noundef %38, i32 noundef %39) #6
  unreachable

40:                                               ; preds = %30
  %41 = load i32, ptr %10, align 4
  %42 = trunc i32 %41 to i8
  %43 = load ptr, ptr %6, align 8
  %44 = getelementptr inbounds nuw i8, ptr %43, i32 1
  store ptr %44, ptr %6, align 8
  store i8 %42, ptr %43, align 1
  %45 = load ptr, ptr %5, align 8
  %46 = getelementptr inbounds nuw i8, ptr %45, i32 1
  store ptr %46, ptr %5, align 8
  %47 = load i32, ptr %7, align 4
  %48 = add i32 %47, -1
  store i32 %48, ptr %7, align 4
  br label %18, !llvm.loop !5

49:                                               ; preds = %21
  %50 = load ptr, ptr %5, align 8
  %51 = load i32, ptr %7, align 4
  %52 = call i32 @pg_encoding_verifymbchar(i32 noundef 1, ptr noundef %50, i32 noundef %51)
  store i32 %52, ptr %13, align 4
  %53 = load i32, ptr %13, align 4
  %54 = icmp slt i32 %53, 0
  br i1 %54, label %55, label %62

55:                                               ; preds = %49
  %56 = load i8, ptr %8, align 1, !range !3, !noundef !4
  %57 = trunc i8 %56 to i1
  br i1 %57, label %58, label %59

58:                                               ; preds = %55
  br label %222

59:                                               ; preds = %55
  %60 = load ptr, ptr %5, align 8
  %61 = load i32, ptr %7, align 4
  call void @report_invalid_encoding(i32 noundef 1, ptr noundef %60, i32 noundef %61) #6
  unreachable

62:                                               ; preds = %49
  %63 = load i32, ptr %10, align 4
  %64 = icmp eq i32 %63, 142
  br i1 %64, label %65, label %71

65:                                               ; preds = %62
  %66 = load ptr, ptr %5, align 8
  %67 = getelementptr inbounds i8, ptr %66, i64 1
  %68 = load i8, ptr %67, align 1
  %69 = load ptr, ptr %6, align 8
  %70 = getelementptr inbounds nuw i8, ptr %69, i32 1
  store ptr %70, ptr %6, align 8
  store i8 %68, ptr %69, align 1
  br label %214

71:                                               ; preds = %62
  %72 = load i32, ptr %10, align 4
  %73 = icmp eq i32 %72, 143
  br i1 %73, label %74, label %160

74:                                               ; preds = %71
  %75 = load ptr, ptr %5, align 8
  %76 = getelementptr inbounds i8, ptr %75, i64 1
  %77 = load i8, ptr %76, align 1
  %78 = zext i8 %77 to i32
  store i32 %78, ptr %10, align 4
  %79 = load ptr, ptr %5, align 8
  %80 = getelementptr inbounds i8, ptr %79, i64 2
  %81 = load i8, ptr %80, align 1
  %82 = zext i8 %81 to i32
  store i32 %82, ptr %11, align 4
  %83 = load i32, ptr %10, align 4
  %84 = shl i32 %83, 8
  %85 = load i32, ptr %11, align 4
  %86 = or i32 %84, %85
  store i32 %86, ptr %12, align 4
  %87 = load i32, ptr %12, align 4
  %88 = icmp sge i32 %87, 62881
  br i1 %88, label %89, label %118

89:                                               ; preds = %74
  %90 = load i32, ptr %10, align 4
  %91 = sub i32 %90, 84
  store i32 %91, ptr %10, align 4
  %92 = load i32, ptr %10, align 4
  %93 = sub i32 %92, 161
  %94 = ashr i32 %93, 1
  %95 = load i32, ptr %10, align 4
  %96 = icmp slt i32 %95, 223
  %97 = select i1 %96, i32 129, i32 193
  %98 = add i32 %94, %97
  %99 = add i32 %98, 116
  %100 = trunc i32 %99 to i8
  %101 = load ptr, ptr %6, align 8
  %102 = getelementptr inbounds nuw i8, ptr %101, i32 1
  store ptr %102, ptr %6, align 8
  store i8 %100, ptr %101, align 1
  %103 = load i32, ptr %11, align 4
  %104 = load i32, ptr %10, align 4
  %105 = and i32 %104, 1
  %106 = icmp ne i32 %105, 0
  br i1 %106, label %107, label %111

107:                                              ; preds = %89
  %108 = load i32, ptr %11, align 4
  %109 = icmp slt i32 %108, 224
  %110 = select i1 %109, i32 97, i32 96
  br label %112

111:                                              ; preds = %89
  br label %112

112:                                              ; preds = %111, %107
  %113 = phi i32 [ %110, %107 ], [ 2, %111 ]
  %114 = sub i32 %103, %113
  %115 = trunc i32 %114 to i8
  %116 = load ptr, ptr %6, align 8
  %117 = getelementptr inbounds nuw i8, ptr %116, i32 1
  store ptr %117, ptr %6, align 8
  store i8 %115, ptr %116, align 1
  br label %159

118:                                              ; preds = %74
  call void @llvm.lifetime.start.p0(i64 4, ptr %14) #5
  call void @llvm.lifetime.start.p0(i64 4, ptr %15) #5
  store i32 0, ptr %14, align 4
  br label %119

119:                                              ; preds = %155, %118
  %120 = load i32, ptr %14, align 4
  %121 = sext i32 %120 to i64
  %122 = getelementptr inbounds [389 x %struct.anon], ptr @ibmkanji, i64 0, i64 %121
  %123 = getelementptr inbounds nuw %struct.anon, ptr %122, i32 0, i32 2
  %124 = load i32, ptr %123, align 4
  %125 = and i32 %124, 65535
  store i32 %125, ptr %15, align 4
  %126 = load i32, ptr %15, align 4
  %127 = icmp eq i32 %126, 65535
  br i1 %127, label %128, label %133

128:                                              ; preds = %119
  %129 = load ptr, ptr %6, align 8
  %130 = getelementptr inbounds nuw i8, ptr %129, i32 1
  store ptr %130, ptr %6, align 8
  store i8 -127, ptr %129, align 1
  %131 = load ptr, ptr %6, align 8
  %132 = getelementptr inbounds nuw i8, ptr %131, i32 1
  store ptr %132, ptr %6, align 8
  store i8 -84, ptr %131, align 1
  br label %158

133:                                              ; preds = %119
  %134 = load i32, ptr %15, align 4
  %135 = load i32, ptr %12, align 4
  %136 = icmp eq i32 %134, %135
  br i1 %136, label %137, label %154

137:                                              ; preds = %133
  %138 = load i32, ptr %14, align 4
  %139 = sext i32 %138 to i64
  %140 = getelementptr inbounds [389 x %struct.anon], ptr @ibmkanji, i64 0, i64 %139
  %141 = getelementptr inbounds nuw %struct.anon, ptr %140, i32 0, i32 1
  %142 = load i16, ptr %141, align 2
  %143 = zext i16 %142 to i32
  store i32 %143, ptr %12, align 4
  %144 = load i32, ptr %12, align 4
  %145 = ashr i32 %144, 8
  %146 = trunc i32 %145 to i8
  %147 = load ptr, ptr %6, align 8
  %148 = getelementptr inbounds nuw i8, ptr %147, i32 1
  store ptr %148, ptr %6, align 8
  store i8 %146, ptr %147, align 1
  %149 = load i32, ptr %12, align 4
  %150 = and i32 %149, 255
  %151 = trunc i32 %150 to i8
  %152 = load ptr, ptr %6, align 8
  %153 = getelementptr inbounds nuw i8, ptr %152, i32 1
  store ptr %153, ptr %6, align 8
  store i8 %151, ptr %152, align 1
  br label %158

154:                                              ; preds = %133
  br label %155

155:                                              ; preds = %154
  %156 = load i32, ptr %14, align 4
  %157 = add i32 %156, 1
  store i32 %157, ptr %14, align 4
  br label %119

158:                                              ; preds = %137, %128
  call void @llvm.lifetime.end.p0(i64 4, ptr %15) #5
  call void @llvm.lifetime.end.p0(i64 4, ptr %14) #5
  br label %159

159:                                              ; preds = %158, %112
  br label %213

160:                                              ; preds = %71
  %161 = load ptr, ptr %5, align 8
  %162 = getelementptr inbounds i8, ptr %161, i64 1
  %163 = load i8, ptr %162, align 1
  %164 = zext i8 %163 to i32
  store i32 %164, ptr %11, align 4
  %165 = load i32, ptr %10, align 4
  %166 = shl i32 %165, 8
  %167 = load i32, ptr %11, align 4
  %168 = and i32 %167, 255
  %169 = or i32 %166, %168
  store i32 %169, ptr %12, align 4
  %170 = load i32, ptr %12, align 4
  %171 = icmp sge i32 %170, 62881
  br i1 %171, label %172, label %186

172:                                              ; preds = %160
  %173 = load i32, ptr %10, align 4
  %174 = sub i32 %173, 84
  store i32 %174, ptr %10, align 4
  %175 = load i32, ptr %10, align 4
  %176 = sub i32 %175, 161
  %177 = ashr i32 %176, 1
  %178 = load i32, ptr %10, align 4
  %179 = icmp slt i32 %178, 223
  %180 = select i1 %179, i32 129, i32 193
  %181 = add i32 %177, %180
  %182 = add i32 %181, 111
  %183 = trunc i32 %182 to i8
  %184 = load ptr, ptr %6, align 8
  %185 = getelementptr inbounds nuw i8, ptr %184, i32 1
  store ptr %185, ptr %6, align 8
  store i8 %183, ptr %184, align 1
  br label %197

186:                                              ; preds = %160
  %187 = load i32, ptr %10, align 4
  %188 = sub i32 %187, 161
  %189 = ashr i32 %188, 1
  %190 = load i32, ptr %10, align 4
  %191 = icmp slt i32 %190, 223
  %192 = select i1 %191, i32 129, i32 193
  %193 = add i32 %189, %192
  %194 = trunc i32 %193 to i8
  %195 = load ptr, ptr %6, align 8
  %196 = getelementptr inbounds nuw i8, ptr %195, i32 1
  store ptr %196, ptr %6, align 8
  store i8 %194, ptr %195, align 1
  br label %197

197:                                              ; preds = %186, %172
  %198 = load i32, ptr %11, align 4
  %199 = load i32, ptr %10, align 4
  %200 = and i32 %199, 1
  %201 = icmp ne i32 %200, 0
  br i1 %201, label %202, label %206

202:                                              ; preds = %197
  %203 = load i32, ptr %11, align 4
  %204 = icmp slt i32 %203, 224
  %205 = select i1 %204, i32 97, i32 96
  br label %207

206:                                              ; preds = %197
  br label %207

207:                                              ; preds = %206, %202
  %208 = phi i32 [ %205, %202 ], [ 2, %206 ]
  %209 = sub i32 %198, %208
  %210 = trunc i32 %209 to i8
  %211 = load ptr, ptr %6, align 8
  %212 = getelementptr inbounds nuw i8, ptr %211, i32 1
  store ptr %212, ptr %6, align 8
  store i8 %210, ptr %211, align 1
  br label %213

213:                                              ; preds = %207, %159
  br label %214

214:                                              ; preds = %213, %65
  %215 = load i32, ptr %13, align 4
  %216 = load ptr, ptr %5, align 8
  %217 = sext i32 %215 to i64
  %218 = getelementptr inbounds i8, ptr %216, i64 %217
  store ptr %218, ptr %5, align 8
  %219 = load i32, ptr %13, align 4
  %220 = load i32, ptr %7, align 4
  %221 = sub i32 %220, %219
  store i32 %221, ptr %7, align 4
  br label %18, !llvm.loop !5

222:                                              ; preds = %58, %36, %18
  %223 = load ptr, ptr %6, align 8
  store i8 0, ptr %223, align 1
  %224 = load ptr, ptr %5, align 8
  %225 = load ptr, ptr %9, align 8
  %226 = ptrtoint ptr %224 to i64
  %227 = ptrtoint ptr %225 to i64
  %228 = sub i64 %226, %227
  %229 = trunc i64 %228 to i32
  call void @llvm.lifetime.end.p0(i64 4, ptr %13) #5
  call void @llvm.lifetime.end.p0(i64 4, ptr %12) #5
  call void @llvm.lifetime.end.p0(i64 4, ptr %11) #5
  call void @llvm.lifetime.end.p0(i64 4, ptr %10) #5
  call void @llvm.lifetime.end.p0(i64 8, ptr %9) #5
  ret i32 %229
}

; Function Attrs: inlinehint nounwind uwtable
define internal zeroext i1 @DatumGetBool(i64 noundef %0) #2 {
  %2 = alloca i64, align 8
  store i64 %0, ptr %2, align 8
  %3 = load i64, ptr %2, align 8
  %4 = icmp ne i64 %3, 0
  ret i1 %4
}

; Function Attrs: inlinehint nounwind uwtable
define internal i32 @DatumGetInt32(i64 noundef %0) #2 {
  %2 = alloca i64, align 8
  store i64 %0, ptr %2, align 8
  %3 = load i64, ptr %2, align 8
  %4 = trunc i64 %3 to i32
  ret i32 %4
}

; Function Attrs: inlinehint nounwind uwtable
define internal ptr @DatumGetCString(i64 noundef %0) #2 {
  %2 = alloca i64, align 8
  store i64 %0, ptr %2, align 8
  %3 = load i64, ptr %2, align 8
  %4 = call ptr @DatumGetPointer(i64 noundef %3)
  ret ptr %4
}

; Function Attrs: nounwind uwtable
define i64 @euc_jp_to_sjis(ptr noundef %0) #0 {
  %2 = alloca ptr, align 8
  %3 = alloca ptr, align 8
  %4 = alloca ptr, align 8
  %5 = alloca i32, align 4
  %6 = alloca i8, align 1
  %7 = alloca i32, align 4
  store ptr %0, ptr %2, align 8
  call void @llvm.lifetime.start.p0(i64 8, ptr %3) #5
  %8 = load ptr, ptr %2, align 8
  %9 = getelementptr inbounds nuw %struct.FunctionCallInfoBaseData, ptr %8, i32 0, i32 6
  %10 = getelementptr inbounds [0 x %struct.NullableDatum], ptr %9, i64 0, i64 2
  %11 = getelementptr inbounds nuw %struct.NullableDatum, ptr %10, i32 0, i32 0
  %12 = load i64, ptr %11, align 8
  %13 = call ptr @DatumGetCString(i64 noundef %12)
  store ptr %13, ptr %3, align 8
  call void @llvm.lifetime.start.p0(i64 8, ptr %4) #5
  %14 = load ptr, ptr %2, align 8
  %15 = getelementptr inbounds nuw %struct.FunctionCallInfoBaseData, ptr %14, i32 0, i32 6
  %16 = getelementptr inbounds [0 x %struct.NullableDatum], ptr %15, i64 0, i64 3
  %17 = getelementptr inbounds nuw %struct.NullableDatum, ptr %16, i32 0, i32 0
  %18 = load i64, ptr %17, align 8
  %19 = call ptr @DatumGetCString(i64 noundef %18)
  store ptr %19, ptr %4, align 8
  call void @llvm.lifetime.start.p0(i64 4, ptr %5) #5
  %20 = load ptr, ptr %2, align 8
  %21 = getelementptr inbounds nuw %struct.FunctionCallInfoBaseData, ptr %20, i32 0, i32 6
  %22 = getelementptr inbounds [0 x %struct.NullableDatum], ptr %21, i64 0, i64 4
  %23 = getelementptr inbounds nuw %struct.NullableDatum, ptr %22, i32 0, i32 0
  %24 = load i64, ptr %23, align 8
  %25 = call i32 @DatumGetInt32(i64 noundef %24)
  store i32 %25, ptr %5, align 4
  call void @llvm.lifetime.start.p0(i64 1, ptr %6) #5
  %26 = load ptr, ptr %2, align 8
  %27 = getelementptr inbounds nuw %struct.FunctionCallInfoBaseData, ptr %26, i32 0, i32 6
  %28 = getelementptr inbounds [0 x %struct.NullableDatum], ptr %27, i64 0, i64 5
  %29 = getelementptr inbounds nuw %struct.NullableDatum, ptr %28, i32 0, i32 0
  %30 = load i64, ptr %29, align 8
  %31 = call zeroext i1 @DatumGetBool(i64 noundef %30)
  %32 = zext i1 %31 to i8
  store i8 %32, ptr %6, align 1
  call void @llvm.lifetime.start.p0(i64 4, ptr %7) #5
  %33 = load ptr, ptr %2, align 8
  %34 = getelementptr inbounds nuw %struct.FunctionCallInfoBaseData, ptr %33, i32 0, i32 6
  %35 = getelementptr inbounds [0 x %struct.NullableDatum], ptr %34, i64 0, i64 0
  %36 = getelementptr inbounds nuw %struct.NullableDatum, ptr %35, i32 0, i32 0
  %37 = load i64, ptr %36, align 8
  %38 = call i32 @DatumGetInt32(i64 noundef %37)
  %39 = load ptr, ptr %2, align 8
  %40 = getelementptr inbounds nuw %struct.FunctionCallInfoBaseData, ptr %39, i32 0, i32 6
  %41 = getelementptr inbounds [0 x %struct.NullableDatum], ptr %40, i64 0, i64 1
  %42 = getelementptr inbounds nuw %struct.NullableDatum, ptr %41, i32 0, i32 0
  %43 = load i64, ptr %42, align 8
  %44 = call i32 @DatumGetInt32(i64 noundef %43)
  %45 = load ptr, ptr %2, align 8
  %46 = getelementptr inbounds nuw %struct.FunctionCallInfoBaseData, ptr %45, i32 0, i32 6
  %47 = getelementptr inbounds [0 x %struct.NullableDatum], ptr %46, i64 0, i64 4
  %48 = getelementptr inbounds nuw %struct.NullableDatum, ptr %47, i32 0, i32 0
  %49 = load i64, ptr %48, align 8
  %50 = call i32 @DatumGetInt32(i64 noundef %49)
  call void @check_encoding_conversion_args(i32 noundef %38, i32 noundef %44, i32 noundef %50, i32 noundef 1, i32 noundef 35)
  %51 = load ptr, ptr %3, align 8
  %52 = load ptr, ptr %4, align 8
  %53 = load i32, ptr %5, align 4
  %54 = load i8, ptr %6, align 1, !range !3, !noundef !4
  %55 = trunc i8 %54 to i1
  %56 = call i32 @euc_jp2sjis(ptr noundef %51, ptr noundef %52, i32 noundef %53, i1 noundef zeroext %55)
  store i32 %56, ptr %7, align 4
  %57 = load i32, ptr %7, align 4
  %58 = call i64 @Int32GetDatum(i32 noundef %57)
  call void @llvm.lifetime.end.p0(i64 4, ptr %7) #5
  call void @llvm.lifetime.end.p0(i64 1, ptr %6) #5
  call void @llvm.lifetime.end.p0(i64 4, ptr %5) #5
  call void @llvm.lifetime.end.p0(i64 8, ptr %4) #5
  call void @llvm.lifetime.end.p0(i64 8, ptr %3) #5
  ret i64 %58
}