; Function Attrs: nounwind uwtable
define range(i64 -2147483648, 2147483648) i64 @euc_jp_to_sjis(ptr noundef readonly captures(none) %0) local_unnamed_addr #1 {
  %2 = getelementptr inbounds nuw i8, ptr %0, i64 32
  %3 = getelementptr inbounds nuw i8, ptr %0, i64 64
  %4 = load i64, ptr %3, align 8
  %5 = inttoptr i64 %4 to ptr
  %6 = getelementptr inbounds nuw i8, ptr %0, i64 80
  %7 = load i64, ptr %6, align 8
  %8 = inttoptr i64 %7 to ptr
  %9 = getelementptr inbounds nuw i8, ptr %0, i64 96
  %10 = load i64, ptr %9, align 8
  %11 = trunc i64 %10 to i32
  %12 = getelementptr inbounds nuw i8, ptr %0, i64 112
  %13 = load i64, ptr %12, align 8
  %.not = icmp eq i64 %13, 0
  %14 = load i64, ptr %2, align 8
  %15 = trunc i64 %14 to i32
  %16 = getelementptr inbounds nuw i8, ptr %0, i64 48
  %17 = load i64, ptr %16, align 8
  %18 = trunc i64 %17 to i32
  tail call void @check_encoding_conversion_args(i32 noundef %15, i32 noundef %18, i32 noundef %11, i32 noundef 1, i32 noundef 35) #4
  %19 = icmp sgt i32 %11, 0
  br i1 %19, label %.lr.ph.i, label %euc_jp2sjis.exit

.lr.ph.i:                                         ; preds = %1, %.backedge.i
  %.093.i = phi ptr [ %.0.be.i, %.backedge.i ], [ %5, %1 ]
  %.06992.i = phi ptr [ %.069.be.i, %.backedge.i ], [ %8, %1 ]
  %.07191.i = phi i32 [ %.071.be.i, %.backedge.i ], [ %11, %1 ]
  %20 = load i8, ptr %.093.i, align 1
  %21 = zext i8 %20 to i32
  %.not.i = icmp sgt i8 %20, -1
  br i1 %.not.i, label %22, label %31

22:                                               ; preds = %.lr.ph.i
  %23 = icmp eq i8 %20, 0
  br i1 %23, label %24, label %26

24:                                               ; preds = %22
  br i1 %.not, label %25, label %euc_jp2sjis.exit

25:                                               ; preds = %24
  tail call void @report_invalid_encoding(i32 noundef 1, ptr noundef nonnull %.093.i, i32 noundef %.07191.i) #5
  unreachable

26:                                               ; preds = %22
  %27 = getelementptr inbounds nuw i8, ptr %.06992.i, i64 1
  store i8 %20, ptr %.06992.i, align 1
  %28 = getelementptr inbounds nuw i8, ptr %.093.i, i64 1
  %29 = add nsw i32 %.07191.i, -1
  br label %.backedge.i

.backedge.i:                                      ; preds = %98, %26
  %.071.be.i = phi i32 [ %101, %98 ], [ %29, %26 ]
  %.069.be.i = phi ptr [ %.1.i, %98 ], [ %27, %26 ]
  %.0.be.i = phi ptr [ %100, %98 ], [ %28, %26 ]
  %30 = icmp sgt i32 %.071.be.i, 0
  br i1 %30, label %.lr.ph.i, label %euc_jp2sjis.exit, !llvm.loop !3

31:                                               ; preds = %.lr.ph.i
  %32 = tail call i32 @pg_encoding_verifymbchar(i32 noundef 1, ptr noundef nonnull %.093.i, i32 noundef %.07191.i) #4
  %33 = icmp slt i32 %32, 0
  br i1 %33, label %34, label %36

34:                                               ; preds = %31
  br i1 %.not, label %35, label %euc_jp2sjis.exit

35:                                               ; preds = %34
  tail call void @report_invalid_encoding(i32 noundef 1, ptr noundef nonnull %.093.i, i32 noundef %.07191.i) #5
  unreachable

36:                                               ; preds = %31
  %37 = getelementptr inbounds nuw i8, ptr %.093.i, i64 1
  %38 = load i8, ptr %37, align 1
  switch i8 %20, label %77 [
    i8 -114, label %39
    i8 -113, label %41
  ]

39:                                               ; preds = %36
  %40 = getelementptr inbounds nuw i8, ptr %.06992.i, i64 1
  store i8 %38, ptr %.06992.i, align 1
  br label %98

41:                                               ; preds = %36
  %42 = zext i8 %38 to i32
  %43 = getelementptr inbounds nuw i8, ptr %.093.i, i64 2
  %44 = load i8, ptr %43, align 1
  %45 = zext i8 %44 to i32
  %46 = shl nuw nsw i32 %42, 8
  %47 = or disjoint i32 %46, %45
  %48 = icmp samesign ugt i32 %47, 62880
  br i1 %48, label %50, label %.preheader.i.preheader

.preheader.i.preheader:                           ; preds = %41
  %49 = icmp eq i32 %47, 62451
  br i1 %49, label %.preheader.i._crit_edge, label %.lr.ph

50:                                               ; preds = %41
  %51 = add nuw nsw i32 %42, 267
  %52 = lshr i32 %51, 1
  %53 = trunc i32 %52 to i8
  %54 = add i8 %53, -11
  %55 = getelementptr inbounds nuw i8, ptr %.06992.i, i64 1
  store i8 %54, ptr %.06992.i, align 1
  %56 = and i32 %42, 1
  %.not78.i = icmp eq i32 %56, 0
  %57 = icmp ult i8 %44, -32
  %.neg79.i = select i1 %57, i8 -97, i8 -96
  %.neg80.i = select i1 %.not78.i, i8 -2, i8 %.neg79.i
  %58 = add i8 %.neg80.i, %44
  %59 = getelementptr inbounds nuw i8, ptr %.06992.i, i64 2
  store i8 %58, ptr %55, align 1
  br label %98

.lr.ph:                                           ; preds = %.preheader.i.preheader, %.preheader.i
  %.06890.i18 = phi i32 [ %60, %.preheader.i ], [ 0, %.preheader.i.preheader ]
  %60 = add i32 %.06890.i18, 1
  %61 = sext i32 %60 to i64
  %62 = getelementptr inbounds [389 x %struct.anon], ptr @ibmkanji, i64 0, i64 %61
  %63 = getelementptr inbounds nuw i8, ptr %62, i64 4
  %64 = load i32, ptr %63, align 4
  %65 = and i32 %64, 65535
  %66 = icmp eq i32 %65, 65535
  br i1 %66, label %67, label %.preheader.i

67:                                               ; preds = %.lr.ph
  %68 = getelementptr inbounds nuw i8, ptr %.06992.i, i64 1
  store i8 -127, ptr %.06992.i, align 1
  store i8 -84, ptr %68, align 1
  br label %76

.preheader.i:                                     ; preds = %.lr.ph
  %69 = icmp eq i32 %65, %47
  br i1 %69, label %.preheader.i._crit_edge, label %.lr.ph

.preheader.i._crit_edge:                          ; preds = %.preheader.i, %.preheader.i.preheader
  %.lcssa = phi ptr [ @ibmkanji, %.preheader.i.preheader ], [ %62, %.preheader.i ]
  %70 = getelementptr inbounds nuw i8, ptr %.lcssa, i64 2
  %71 = load i16, ptr %70, align 2
  %72 = lshr i16 %71, 8
  %73 = trunc nuw i16 %72 to i8
  %74 = getelementptr inbounds nuw i8, ptr %.06992.i, i64 1
  store i8 %73, ptr %.06992.i, align 1
  %75 = trunc i16 %71 to i8
  store i8 %75, ptr %74, align 1
  br label %76

76:                                               ; preds = %.preheader.i._crit_edge, %67
  %.2.i = getelementptr inbounds nuw i8, ptr %.06992.i, i64 2
  br label %98

77:                                               ; preds = %36
  %78 = zext i8 %38 to i32
  %79 = shl nuw nsw i32 %21, 8
  %80 = or disjoint i32 %79, %78
  %81 = icmp samesign ugt i32 %80, 62880
  br i1 %81, label %82, label %87

82:                                               ; preds = %77
  %83 = add nsw i32 %21, -84
  %84 = add nsw i32 %21, -245
  %85 = ashr i32 %84, 1
  %86 = add nsw i32 %85, 240
  br label %93

87:                                               ; preds = %77
  %88 = add nuw nsw i32 %21, 351
  %89 = lshr i32 %88, 1
  %90 = icmp samesign ult i8 %20, -33
  %91 = select i1 %90, i32 129, i32 193
  %92 = add nuw nsw i32 %89, %91
  br label %93

93:                                               ; preds = %87, %82
  %storemerge.in.i = phi i32 [ %92, %87 ], [ %86, %82 ]
  %.070.i = phi i32 [ %21, %87 ], [ %83, %82 ]
  %.3.i = getelementptr inbounds nuw i8, ptr %.06992.i, i64 1
  %storemerge.i = trunc i32 %storemerge.in.i to i8
  store i8 %storemerge.i, ptr %.06992.i, align 1
  %94 = and i32 %.070.i, 1
  %.not76.i = icmp eq i32 %94, 0
  %95 = icmp ult i8 %38, -32
  %.neg.i = select i1 %95, i8 -97, i8 -96
  %.neg77.i = select i1 %.not76.i, i8 -2, i8 %.neg.i
  %96 = add i8 %.neg77.i, %38
  %97 = getelementptr inbounds nuw i8, ptr %.06992.i, i64 2
  store i8 %96, ptr %.3.i, align 1
  br label %98

98:                                               ; preds = %93, %76, %50, %39
  %.1.i = phi ptr [ %40, %39 ], [ %59, %50 ], [ %.2.i, %76 ], [ %97, %93 ]
  %99 = zext nneg i32 %32 to i64
  %100 = getelementptr inbounds nuw i8, ptr %.093.i, i64 %99
  %101 = sub nsw i32 %.07191.i, %32
  br label %.backedge.i

euc_jp2sjis.exit:                                 ; preds = %.backedge.i, %1, %24, %34
  %.06987.i = phi ptr [ %.06992.i, %34 ], [ %.06992.i, %24 ], [ %8, %1 ], [ %.069.be.i, %.backedge.i ]
  %.084.i = phi ptr [ %.093.i, %34 ], [ %.093.i, %24 ], [ %5, %1 ], [ %.0.be.i, %.backedge.i ]
  store i8 0, ptr %.06987.i, align 1
  %102 = ptrtoint ptr %.084.i to i64
  %103 = sub i64 %102, %4
  %sext = shl i64 %103, 32
  %104 = ashr exact i64 %sext, 32
  ret i64 %104
}